; Function Attrs: nounwind uwtable
define range(i32 0, 2) i32 @SSL_get_peer_signature_type_nid(ptr noundef %0, ptr noundef writeonly captures(none) %1) local_unnamed_addr #2 {
  %3 = icmp eq ptr %0, null
  br i1 %3, label %.thread, label %4

4:                                                ; preds = %2
  %5 = load i32, ptr %0, align 8, !tbaa !19
  %6 = icmp eq i32 %5, 0
  br i1 %6, label %.thread13, label %7

7:                                                ; preds = %4
  %8 = and i32 %5, 128
  %.not = icmp eq i32 %8, 0
  br i1 %.not, label %.thread, label %9

9:                                                ; preds = %7
  %10 = tail call ptr @ossl_quic_obj_get0_handshake_layer(ptr noundef nonnull %0) #14
  %11 = icmp eq ptr %10, null
  br i1 %11, label %.thread, label %.thread13

.thread13:                                        ; preds = %4, %9
  %12 = phi ptr [ %10, %9 ], [ %0, %4 ]
  %13 = getelementptr inbounds nuw i8, ptr %12, i64 1024
  %14 = load ptr, ptr %13, align 8, !tbaa !196
  %15 = icmp eq ptr %14, null
  br i1 %15, label %.thread, label %16

16:                                               ; preds = %.thread13
  %17 = getelementptr inbounds nuw i8, ptr %14, i64 20
  %18 = load i32, ptr %17, align 4, !tbaa !183
  store i32 %18, ptr %1, align 4, !tbaa !135
  br label %.thread

.thread:                                          ; preds = %7, %2, %.thread13, %9, %16
  %.0 = phi i32 [ 1, %16 ], [ 0, %9 ], [ 0, %.thread13 ], [ 0, %2 ], [ 0, %7 ]
  ret i32 %.0
}